; Function Attrs: nounwind uwtable
define noundef ptr @Amap_ManCreateXor(ptr noundef captures(none) %0, ptr noundef %1, ptr noundef %2) local_unnamed_addr #0 {
  %4 = tail call ptr @Amap_ManSetupObj(ptr noundef %0)
  %5 = load i64, ptr %4, align 8
  %6 = and i64 %5, -8
  %7 = or disjoint i64 %6, 5
  store i64 %7, ptr %4, align 8
  %8 = ptrtoint ptr %1 to i64
  %9 = and i64 %8, -2
  %10 = inttoptr i64 %9 to ptr
  %11 = load i64, ptr %10, align 8
  %12 = trunc i64 %11 to i32
  %13 = trunc i64 %8 to i32
  %14 = and i32 %13, 1
  %15 = lshr i32 %12, 2
  %16 = and i32 %15, 1073741822
  %17 = or disjoint i32 %16, %14
  %18 = getelementptr inbounds nuw i8, ptr %4, i64 24
  store i32 %17, ptr %18, align 8, !tbaa !20
  %19 = getelementptr inbounds nuw i8, ptr %10, i64 16
  %20 = load i32, ptr %19, align 8, !tbaa !29
  %21 = add nsw i32 %20, 1
  store i32 %21, ptr %19, align 8, !tbaa !29
  %22 = ptrtoint ptr %2 to i64
  %23 = and i64 %22, -2
  %24 = inttoptr i64 %23 to ptr
  %25 = load i64, ptr %24, align 8
  %26 = trunc i64 %25 to i32
  %27 = trunc i64 %22 to i32
  %28 = and i32 %27, 1
  %29 = lshr i32 %26, 2
  %30 = and i32 %29, 1073741822
  %31 = or disjoint i32 %30, %28
  %32 = getelementptr inbounds nuw i8, ptr %4, i64 28
  store i32 %31, ptr %32, align 4, !tbaa !20
  %33 = getelementptr inbounds nuw i8, ptr %24, i64 16
  %34 = load i32, ptr %33, align 8, !tbaa !29
  %35 = add nsw i32 %34, 1
  store i32 %35, ptr %33, align 8, !tbaa !29
  %36 = load i64, ptr %10, align 8
  %37 = load i64, ptr %24, align 8
  %38 = xor i64 %37, %36
  %39 = lshr i64 %38, 61
  %40 = xor i64 %39, %8
  %41 = xor i64 %40, %22
  %42 = load i64, ptr %4, align 8
  %43 = shl i64 %41, 61
  %44 = and i64 %43, 2305843009213693952
  %45 = and i64 %42, -2305843009213693953
  %46 = or disjoint i64 %44, %45
  store i64 %46, ptr %4, align 8
  %47 = getelementptr inbounds nuw i8, ptr %10, i64 8
  %48 = load i32, ptr %47, align 8, !tbaa !33
  %49 = getelementptr inbounds nuw i8, ptr %24, i64 8
  %50 = load i32, ptr %49, align 8, !tbaa !33
  %51 = tail call noundef i32 @llvm.smax.i32(i32 %48, i32 %50)
  %52 = add nsw i32 %51, 2
  %53 = getelementptr inbounds nuw i8, ptr %4, i64 8
  store i32 %52, ptr %53, align 8, !tbaa !33
  %54 = getelementptr inbounds nuw i8, ptr %0, i64 124
  %55 = load i32, ptr %54, align 4, !tbaa !34
  %56 = icmp slt i32 %55, %52
  br i1 %56, label %57, label %58

57:                                               ; preds = %3
  store i32 %52, ptr %54, align 4, !tbaa !34
  br label %58

58:                                               ; preds = %57, %3
  %59 = getelementptr inbounds nuw i8, ptr %0, i64 116
  %60 = load i32, ptr %59, align 4, !tbaa !20
  %61 = add nsw i32 %60, 1
  store i32 %61, ptr %59, align 4, !tbaa !20
  ret ptr %4
}